target datalayout = "e-m:e-p270:32:32-p271:32:32-p272:64:64-i64:64-i128:128-f80:128-n8:16:32:64-S128"
target triple = "x86_64-pc-linux-gnu"

%struct.Res6_Man_t_ = type { i32, i32, i32, i32, i32, i32, %struct.Vec_Wrd_t_, %struct.Vec_Wrd_t_, ptr, ptr, %struct.Vec_Int_t_, %struct.Vec_Int_t_, %struct.Vec_Int_t_, %struct.Vec_Int_t_ }
%struct.Vec_Wrd_t_ = type { i32, i32, ptr }
%struct.Vec_Int_t_ = type { i32, i32, ptr }

; Function Attrs: inlinehint nounwind uwtable
define internal i32 @Abc_TtCountOnes(i64 noundef %0) #2 {
  %2 = alloca i64, align 8
  store i64 %0, ptr %2, align 8, !tbaa !48
  %3 = load i64, ptr %2, align 8, !tbaa !48
  %4 = load i64, ptr %2, align 8, !tbaa !48
  %5 = lshr i64 %4, 1
  %6 = and i64 %5, 6148914691236517205
  %7 = sub i64 %3, %6
  store i64 %7, ptr %2, align 8, !tbaa !48
  %8 = load i64, ptr %2, align 8, !tbaa !48
  %9 = and i64 %8, 3689348814741910323
  %10 = load i64, ptr %2, align 8, !tbaa !48
  %11 = lshr i64 %10, 2
  %12 = and i64 %11, 3689348814741910323
  %13 = add i64 %9, %12
  store i64 %13, ptr %2, align 8, !tbaa !48
  %14 = load i64, ptr %2, align 8, !tbaa !48
  %15 = load i64, ptr %2, align 8, !tbaa !48
  %16 = lshr i64 %15, 4
  %17 = add i64 %14, %16
  %18 = and i64 %17, 1085102592571150095
  store i64 %18, ptr %2, align 8, !tbaa !48
  %19 = load i64, ptr %2, align 8, !tbaa !48
  %20 = load i64, ptr %2, align 8, !tbaa !48
  %21 = lshr i64 %20, 8
  %22 = add i64 %19, %21
  store i64 %22, ptr %2, align 8, !tbaa !48
  %23 = load i64, ptr %2, align 8, !tbaa !48
  %24 = load i64, ptr %2, align 8, !tbaa !48
  %25 = lshr i64 %24, 16
  %26 = add i64 %23, %25
  store i64 %26, ptr %2, align 8, !tbaa !48
  %27 = load i64, ptr %2, align 8, !tbaa !48
  %28 = load i64, ptr %2, align 8, !tbaa !48
  %29 = lshr i64 %28, 32
  %30 = add i64 %27, %29
  store i64 %30, ptr %2, align 8, !tbaa !48
  %31 = load i64, ptr %2, align 8, !tbaa !48
  %32 = and i64 %31, 255
  %33 = trunc i64 %32 to i32
  ret i32 %33
}

; Function Attrs: nounwind uwtable
define i32 @Res6_FindGetCost(ptr noundef %0, i32 noundef %1) #0 {
  %3 = alloca ptr, align 8
  %4 = alloca i32, align 4
  %5 = alloca i32, align 4
  %6 = alloca i32, align 4
  store ptr %0, ptr %3, align 8, !tbaa !17
  store i32 %1, ptr %4, align 4, !tbaa !19
  call void @llvm.lifetime.start.p0(i64 4, ptr %5) #11
  call void @llvm.lifetime.start.p0(i64 4, ptr %6) #11
  store i32 0, ptr %6, align 4, !tbaa !19
  store i32 0, ptr %5, align 4, !tbaa !19
  br label %7

7:                                                ; preds = %61, %2
  %8 = load i32, ptr %5, align 4, !tbaa !19
  %9 = load ptr, ptr %3, align 8, !tbaa !17
  %10 = getelementptr inbounds nuw %struct.Res6_Man_t_, ptr %9, i32 0, i32 5
  %11 = load i32, ptr %10, align 4, !tbaa !45
  %12 = icmp slt i32 %8, %11
  br i1 %12, label %13, label %64

13:                                               ; preds = %7
  %14 = load ptr, ptr %3, align 8, !tbaa !17
  %15 = getelementptr inbounds nuw %struct.Res6_Man_t_, ptr %14, i32 0, i32 8
  %16 = load ptr, ptr %15, align 8, !tbaa !27
  %17 = load i32, ptr %4, align 4, !tbaa !19
  %18 = sext i32 %17 to i64
  %19 = getelementptr inbounds ptr, ptr %16, i64 %18
  %20 = load ptr, ptr %19, align 8, !tbaa !28
  %21 = load i32, ptr %5, align 4, !tbaa !19
  %22 = sext i32 %21 to i64
  %23 = getelementptr inbounds i64, ptr %20, i64 %22
  %24 = load i64, ptr %23, align 8, !tbaa !48
  %25 = load ptr, ptr %3, align 8, !tbaa !17
  %26 = getelementptr inbounds nuw %struct.Res6_Man_t_, ptr %25, i32 0, i32 9
  %27 = load ptr, ptr %26, align 8, !tbaa !35
  %28 = getelementptr inbounds ptr, ptr %27, i64 0
  %29 = load ptr, ptr %28, align 8, !tbaa !28
  %30 = load i32, ptr %5, align 4, !tbaa !19
  %31 = sext i32 %30 to i64
  %32 = getelementptr inbounds i64, ptr %29, i64 %31
  %33 = load i64, ptr %32, align 8, !tbaa !48
  %34 = and i64 %24, %33
  %35 = load ptr, ptr %3, align 8, !tbaa !17
  %36 = getelementptr inbounds nuw %struct.Res6_Man_t_, ptr %35, i32 0, i32 8
  %37 = load ptr, ptr %36, align 8, !tbaa !27
  %38 = load i32, ptr %4, align 4, !tbaa !19
  %39 = xor i32 %38, 1
  %40 = sext i32 %39 to i64
  %41 = getelementptr inbounds ptr, ptr %37, i64 %40
  %42 = load ptr, ptr %41, align 8, !tbaa !28
  %43 = load i32, ptr %5, align 4, !tbaa !19
  %44 = sext i32 %43 to i64
  %45 = getelementptr inbounds i64, ptr %42, i64 %44
  %46 = load i64, ptr %45, align 8, !tbaa !48
  %47 = load ptr, ptr %3, align 8, !tbaa !17
  %48 = getelementptr inbounds nuw %struct.Res6_Man_t_, ptr %47, i32 0, i32 9
  %49 = load ptr, ptr %48, align 8, !tbaa !35
  %50 = getelementptr inbounds ptr, ptr %49, i64 1
  %51 = load ptr, ptr %50, align 8, !tbaa !28
  %52 = load i32, ptr %5, align 4, !tbaa !19
  %53 = sext i32 %52 to i64
  %54 = getelementptr inbounds i64, ptr %51, i64 %53
  %55 = load i64, ptr %54, align 8, !tbaa !48
  %56 = and i64 %46, %55
  %57 = or i64 %34, %56
  %58 = call i32 @Abc_TtCountOnes(i64 noundef %57)
  %59 = load i32, ptr %6, align 4, !tbaa !19
  %60 = add nsw i32 %59, %58
  store i32 %60, ptr %6, align 4, !tbaa !19
  br label %61

61:                                               ; preds = %13
  %62 = load i32, ptr %5, align 4, !tbaa !19
  %63 = add nsw i32 %62, 1
  store i32 %63, ptr %5, align 4, !tbaa !19
  br label %7, !llvm.loop !80

64:                                               ; preds = %7
  %65 = load i32, ptr %6, align 4, !tbaa !19
  call void @llvm.lifetime.end.p0(i64 4, ptr %6) #11
  call void @llvm.lifetime.end.p0(i64 4, ptr %5) #11
  ret i32 %65
}