; Function Attrs: nofree norecurse nosync nounwind memory(read, inaccessiblemem: none) uwtable
define i32 @Res6_FindGetCost(ptr noundef readonly captures(none) %0, i32 noundef %1) local_unnamed_addr #9 {
  %3 = getelementptr inbounds nuw i8, ptr %0, i64 20
  %4 = load i32, ptr %3, align 4, !tbaa !56
  %5 = icmp sgt i32 %4, 0
  br i1 %5, label %.lr.ph, label %._crit_edge

.lr.ph:                                           ; preds = %2
  %6 = getelementptr inbounds nuw i8, ptr %0, i64 56
  %7 = load ptr, ptr %6, align 8, !tbaa !40
  %8 = sext i32 %1 to i64
  %9 = getelementptr inbounds ptr, ptr %7, i64 %8
  %10 = load ptr, ptr %9, align 8, !tbaa !41
  %11 = getelementptr inbounds nuw i8, ptr %0, i64 64
  %12 = load ptr, ptr %11, align 8, !tbaa !49
  %13 = load ptr, ptr %12, align 8, !tbaa !41
  %14 = xor i32 %1, 1
  %15 = sext i32 %14 to i64
  %16 = getelementptr inbounds ptr, ptr %7, i64 %15
  %17 = load ptr, ptr %16, align 8, !tbaa !41
  %18 = getelementptr inbounds nuw i8, ptr %12, i64 8
  %19 = load ptr, ptr %18, align 8, !tbaa !41
  %wide.trip.count = zext nneg i32 %4 to i64
  br label %20

20:                                               ; preds = %.lr.ph, %20
  %indvars.iv = phi i64 [ 0, %.lr.ph ], [ %indvars.iv.next, %20 ]
  %.016 = phi i32 [ 0, %.lr.ph ], [ %50, %20 ]
  %21 = getelementptr inbounds nuw i64, ptr %10, i64 %indvars.iv
  %22 = load i64, ptr %21, align 8, !tbaa !42
  %23 = getelementptr inbounds nuw i64, ptr %13, i64 %indvars.iv
  %24 = load i64, ptr %23, align 8, !tbaa !42
  %25 = and i64 %24, %22
  %26 = getelementptr inbounds nuw i64, ptr %17, i64 %indvars.iv
  %27 = load i64, ptr %26, align 8, !tbaa !42
  %28 = getelementptr inbounds nuw i64, ptr %19, i64 %indvars.iv
  %29 = load i64, ptr %28, align 8, !tbaa !42
  %30 = and i64 %29, %27
  %31 = or i64 %30, %25
  %32 = lshr i64 %31, 1
  %33 = and i64 %32, 6148914691236517205
  %34 = sub i64 %31, %33
  %35 = and i64 %34, 3689348814741910323
  %36 = lshr i64 %34, 2
  %37 = and i64 %36, 3689348814741910323
  %38 = add nuw nsw i64 %37, %35
  %39 = lshr i64 %38, 4
  %40 = add nuw nsw i64 %39, %38
  %41 = and i64 %40, 1085102592571150095
  %42 = lshr i64 %41, 8
  %43 = add nuw nsw i64 %42, %41
  %44 = lshr i64 %43, 16
  %45 = add nuw nsw i64 %44, %43
  %46 = lshr i64 %45, 32
  %47 = add nuw nsw i64 %46, %45
  %48 = trunc i64 %47 to i32
  %49 = and i32 %48, 255
  %50 = add nuw nsw i32 %49, %.016
  %indvars.iv.next = add nuw nsw i64 %indvars.iv, 1
  %exitcond.not = icmp eq i64 %indvars.iv.next, %wide.trip.count
  br i1 %exitcond.not, label %._crit_edge, label %20, !llvm.loop !76

._crit_edge:                                      ; preds = %20, %2
  %.0.lcssa = phi i32 [ 0, %2 ], [ %50, %20 ]
  ret i32 %.0.lcssa
}